; Function Attrs: mustprogress nofree norecurse nosync nounwind willreturn memory(argmem: read) uwtable
define i32 @png_get_palette_max(ptr noundef readonly %0, ptr noundef readnone %1) local_unnamed_addr #0 {
  %3 = icmp ne ptr %0, null
  %4 = icmp ne ptr %1, null
  %or.cond = and i1 %3, %4
  br i1 %or.cond, label %5, label %8

5:                                                ; preds = %2
  %6 = getelementptr inbounds i8, ptr %0, i64 604
  %7 = load i32, ptr %6, align 4
  br label %8

8:                                                ; preds = %2, %5
  %.0 = phi i32 [ %7, %5 ], [ -1, %2 ]
  ret i32 %.0
}